(dp0
S'OriginalConfig'
p1
ccopy_reg
_reconstructor
p2
(cWMCore.Configuration
Configuration
p3
c__builtin__
object
p4
Ntp5
Rp6
(dp7
S'Site'
p8
g2
(cWMCore.Configuration
ConfigSection
p9
g4
Ntp10
Rp11
(dp12
S'_internal_skipChecks'
p13
I00
sS'_internal_documentation'
p14
S''
p15
sS'_internal_settings'
p16
c__builtin__
set
p17
((lp18
S'ignoreGlobalBlacklist'
p19
aS'storageSite'
p20
atp21
Rp22
sS'_internal_name'
p23
g8
sS'_internal_docstrings'
p24
(dp25
sS'_internal_children'
p26
g17
((lp27
tp28
Rp29
sg20
S'T2_CH_CERN'
p30
sg19
I01
sS'_internal_parent_ref'
p31
NsbsS'Data'
p32
g2
(g9
g4
Ntp33
Rp34
(dp35
S'inputDataset'
p36
S'/wgen_Vector_MonoZLL_NLO_Mphi-500_Mchi2-150_Mchi1-1_gSM-0p25_gDM-1p0_ctau1p0/fkhuzaim-RunIISummer20UL17_MINIAOD-87676c4ccd15f4d41337990d88f57b6b/USER'
p37
sg13
I00
sS'splitting'
p38
S'FileBased'
p39
sS'unitsPerJob'
p40
I1
sg14
g15
sg16
g17
((lp41
g36
ag40
aS'inputDBS'
p42
ag38
atp43
Rp44
sg23
g32
sg42
S'phys03'
p45
sg24
(dp46
sg26
g17
((lp47
tp48
Rp49
sg31
NsbsS'_internal_sections'
p50
(lp51
S'General'
p52
aS'JobType'
p53
ag32
ag8
asg53
g2
(g9
g4
Ntp54
Rp55
(dp56
S'outputFiles'
p57
(lp58
S'ExoPieElementTuples.root'
p59
asg13
I00
sS'pyCfgParams'
p60
(lp61
S'runOnMC=True'
p62
aS'runOn2017=True'
p63
asg14
g15
sg16
g17
((lp64
g57
aS'disableAutomaticOutputCollection'
p65
ag60
aS'pluginName'
p66
aS'sendPythonFolder'
p67
aS'allowUndistributedCMSSW'
p68
aS'psetName'
p69
aS'inputFiles'
p70
atp71
Rp72
sg23
g53
sg24
(dp73
sg67
I01
sg66
S'Analysis'
p74
sg26
g17
((lp75
tp76
Rp77
sg68
I01
sg69
S'treeMaker_16_17_cfg.py'
p78
sg31
Nsg70
(lp79
S'../MetaData/data/DNN_models/model-51.pb'
p80
aS'../TreeMaker/data/BoostedSVDoubleCA15_withSubjet_v4.weights.xml'
p81
aS'../TreeMaker/data/RegroupedV2_Summer19UL17_V5_MC_UncertaintySources_AK4PFchs.txt'
p82
asg65
I01
sbsg52
g2
(g9
g4
Ntp83
Rp84
(dp85
S'transferLogs'
p86
I00
sg13
I00
sg14
g15
sg16
g17
((lp87
g86
aS'transferOutputs'
p88
aS'workArea'
p89
aS'requestName'
p90
atp91
Rp92
sg23
g52
sg24
(dp93
sg88
I01
sg26
g17
((lp94
tp95
Rp96
sg90
S'testCrab'
p97
sg31
Nsg89
S'crab_setup_LL_UltraLegacy_V1'
p98
sbsbsS'voGroup'
p99
g15
sS'Server'
p100
S'cmsweb.cern.ch'
p101
sS'instance'
p102
S'prod'
p103
sS'RequestName'
p104
V220516_161833:syu_crab_testCrab
p105
sS'voRole'
p106
S'NULL'
p107
sS'Port'
p108
g15
s.